(dp1
S'OriginalConfig'
p2
ccopy_reg
_reconstructor
p3
(cWMCore.Configuration
Configuration
p4
c__builtin__
object
p5
NtRp6
(dp7
S'Site'
p8
g3
(cWMCore.Configuration
ConfigSection
p9
g5
NtRp10
(dp11
S'_internal_skipChecks'
p12
I00
sS'_internal_documentation'
p13
S''
sS'_internal_settings'
p14
c__builtin__
set
p15
((lp16
S'ignoreGlobalBlacklist'
p17
aS'whitelist'
p18
aS'storageSite'
p19
atRp20
sS'_internal_name'
p21
g8
sS'_internal_docstrings'
p22
(dp23
sS'_internal_children'
p24
g15
((ltRp25
sg19
S'T3_US_FNALLPC'
p26
sg17
I01
sS'_internal_parent_ref'
p27
Nsg18
(lp28
g26
asbsS'_internal_sections'
p29
(lp30
S'General'
p31
aS'JobType'
p32
aS'Data'
p33
ag8
aS'User'
p34
aS'Debug'
p35
asg31
g3
(g9
g5
NtRp36
(dp37
S'transferLogs'
p38
I00
sg12
I00
sg13
S''
sg14
g15
((lp39
g38
aS'transferOutputs'
p40
aS'workArea'
p41
aS'requestName'
p42
atRp43
sg21
g31
sg22
(dp44
sg40
I01
sg24
g15
((ltRp45
sg42
S'TTbarDMJets_pseudoscalar_Mchi-1_Mphi-100_TuneCUETP8M1_13TeV-madgraphMLM-pythia8_ext1'
p46
sg27
Nsg41
S'Submission'
p47
sbsS'_internal_webapps'
p48
(lp49
sg34
g3
(g9
g5
NtRp50
(dp51
g12
I00
sg13
S''
sg14
g15
((ltRp52
sg21
g34
sg22
(dp53
sg24
g15
((ltRp54
sg27
NsbsS'_internal_components'
p55
(lp56
sg35
g3
(g9
g5
NtRp57
(dp58
g12
I00
sg13
S''
sg14
g15
((ltRp59
sg21
g35
sg22
(dp60
sg24
g15
((ltRp61
sg27
Nsbsg33
g3
(g9
g5
NtRp62
(dp63
S'inputDataset'
p64
S'/TTbarDMJets_pseudoscalar_Mchi-1_Mphi-100_TuneCUETP8M1_13TeV-madgraphMLM-pythia8/RunIISummer16MiniAODv2-PUMoriond17_80X_mcRun2_asymptotic_2016_TrancheIV_v6_ext1-v1/MINIAODSIM'
p65
sS'outputDatasetTag'
p66
g46
sg12
I00
sS'splitting'
p67
S'EventAwareLumiBased'
p68
sS'unitsPerJob'
p69
I40000
sg13
S''
sg14
g15
((lp70
g64
ag66
aS'totalUnits'
p71
ag69
aS'ignoreLocality'
p72
aS'inputDBS'
p73
ag67
aS'outLFNDirBase'
p74
aS'lumiMask'
p75
aS'publication'
p76
atRp77
sg72
I01
sg21
g33
sg73
S'global'
p78
sg22
(dp79
sg24
g15
((ltRp80
sg76
I00
sg74
S'/store/user/mcremone/pandaprod/80X'
p81
sg27
Nsg75
Nsg71
I-1
sbsg32
g3
(g9
g5
NtRp82
(dp83
g12
I00
sS'pyCfgParams'
p84
(lp85
S'config=Summer16'
p86
aS'outputFile=panda.root'
p87
asg13
S''
sg14
g15
((lp88
S'psetName'
p89
aS'pluginName'
p90
ag84
atRp91
sg21
g32
sg22
(dp92
sg90
S'Analysis'
p93
sg24
g15
((ltRp94
sg89
S'prod.py'
p95
sg27
NsbsbsS'voGroup'
p96
S''
sS'Server'
p97
S'cmsweb.cern.ch'
p98
sS'instance'
p99
S'prod'
p100
sS'RequestName'
p101
V171224_194026:mcremone_crab_TTbarDMJets_pseudoscalar_Mchi-1_Mphi-100_TuneCUETP8M1_13TeV-madgraphMLM-pythia8_ext1
p102
sS'voRole'
p103
S'NULL'
p104
sS'Port'
p105
S''
s.